	.section	__TEXT,__text,regular,pure_instructions
	.macosx_version_min 10, 13
	.file	1 "main.cpp"
	.file	2 "/Applications/Xcode.app/Contents/Developer/Toolchains/XcodeDefault.xctoolchain/usr/lib/clang/9.1.0/include" "stddef.h"
	.file	3 "/Applications/Xcode.app/Contents/Developer/Toolchains/XcodeDefault.xctoolchain/usr/include/c++/v1" "cstddef"
	.file	4 "/usr/include/i386" "_types.h"
	.file	5 "/usr/include/sys/_types" "_size_t.h"
	.file	6 "/Applications/Xcode.app/Contents/Developer/Toolchains/XcodeDefault.xctoolchain/usr/include/c++/v1" "cstring"
	.file	7 "/usr/include" "string.h"
	.file	8 "/Applications/Xcode.app/Contents/Developer/Toolchains/XcodeDefault.xctoolchain/usr/include/c++/v1" "string.h"
	.file	9 "/usr/include/sys/_types" "_int8_t.h"
	.file	10 "/Applications/Xcode.app/Contents/Developer/Toolchains/XcodeDefault.xctoolchain/usr/include/c++/v1" "cstdint"
	.file	11 "/usr/include/sys/_types" "_int16_t.h"
	.file	12 "/usr/include/sys/_types" "_int32_t.h"
	.file	13 "/usr/include/sys/_types" "_int64_t.h"
	.file	14 "/usr/include/_types" "_uint8_t.h"
	.file	15 "/usr/include/_types" "_uint16_t.h"
	.file	16 "/usr/include/_types" "_uint32_t.h"
	.file	17 "/usr/include/_types" "_uint64_t.h"
	.file	18 "/usr/include" "stdint.h"
	.file	19 "/usr/include/sys/_types" "_intptr_t.h"
	.file	20 "/usr/include/sys/_types" "_uintptr_t.h"
	.file	21 "/usr/include/_types" "_intmax_t.h"
	.file	22 "/usr/include/_types" "_uintmax_t.h"
	.file	23 "/Applications/Xcode.app/Contents/Developer/Toolchains/XcodeDefault.xctoolchain/usr/include/c++/v1" "cstdlib"
	.file	24 "/usr/include" "stdlib.h"
	.file	25 "/Applications/Xcode.app/Contents/Developer/Toolchains/XcodeDefault.xctoolchain/usr/include/c++/v1" "stdlib.h"
	.file	26 "/usr/include" "_stdio.h"
	.file	27 "/usr/include/sys" "_types.h"
	.file	28 "/Applications/Xcode.app/Contents/Developer/Toolchains/XcodeDefault.xctoolchain/usr/include/c++/v1" "cstdio"
	.file	29 "/usr/include" "stdio.h"
	.file	30 "/usr/include" "_ctype.h"
	.file	31 "/Applications/Xcode.app/Contents/Developer/Toolchains/XcodeDefault.xctoolchain/usr/include/c++/v1" "cctype"
	.file	32 "/usr/include/sys/_types" "_wint_t.h"
	.file	33 "/Applications/Xcode.app/Contents/Developer/Toolchains/XcodeDefault.xctoolchain/usr/include/c++/v1" "cwctype"
	.file	34 "/usr/include" "_types.h"
	.file	35 "/usr/include/_types" "_wctrans_t.h"
	.file	36 "/usr/include/_types" "_wctype_t.h"
	.file	37 "/usr/include" "_wctype.h"
	.file	38 "/usr/include" "wctype.h"
	.file	39 "/usr/include/sys/_types" "_mbstate_t.h"
	.file	40 "/Applications/Xcode.app/Contents/Developer/Toolchains/XcodeDefault.xctoolchain/usr/include/c++/v1" "cwchar"
	.file	41 "/usr/include" "time.h"
	.file	42 "/usr/include" "wchar.h"
	.file	43 "/Applications/Xcode.app/Contents/Developer/Toolchains/XcodeDefault.xctoolchain/usr/include/c++/v1" "wchar.h"
	.file	44 "/usr/include/sys/_types" "_clock_t.h"
	.file	45 "/Applications/Xcode.app/Contents/Developer/Toolchains/XcodeDefault.xctoolchain/usr/include/c++/v1" "ctime"
	.file	46 "/usr/include/sys/_types" "_time_t.h"
	.globl	__Z13no_inline_addii    ## -- Begin function _Z13no_inline_addii
	.p2align	4, 0x90
__Z13no_inline_addii:                   ## @_Z13no_inline_addii
Lfunc_begin0:
	.loc	1 9 0                   ## main.cpp:9:0
	.cfi_startproc
## BB#0:
	pushq	%rbp
Lcfi0:
	.cfi_def_cfa_offset 16
Lcfi1:
	.cfi_offset %rbp, -16
	movq	%rsp, %rbp
Lcfi2:
	.cfi_def_cfa_register %rbp
	movl	%edi, -4(%rbp)
	movl	%esi, -8(%rbp)
Ltmp0:
	.loc	1 11 6 prologue_end     ## main.cpp:11:6
	movl	__ZZ13no_inline_addiiE3cnt(%rip), %esi
	addl	$1, %esi
	movl	%esi, __ZZ13no_inline_addiiE3cnt(%rip)
	.loc	1 12 10                 ## main.cpp:12:10
	movl	__ZZ13no_inline_addiiE3cnt(%rip), %esi
	.loc	1 12 14 is_stmt 0       ## main.cpp:12:14
	addl	-4(%rbp), %esi
	.loc	1 12 18                 ## main.cpp:12:18
	addl	-8(%rbp), %esi
	.loc	1 12 3                  ## main.cpp:12:3
	movl	%esi, %eax
	popq	%rbp
	retq
Ltmp1:
Lfunc_end0:
	.cfi_endproc
                                        ## -- End function
	.globl	_main                   ## -- Begin function main
	.p2align	4, 0x90
_main:                                  ## @main
Lfunc_begin1:
	.loc	1 15 0 is_stmt 1        ## main.cpp:15:0
	.cfi_startproc
## BB#0:
	pushq	%rbp
Lcfi3:
	.cfi_def_cfa_offset 16
Lcfi4:
	.cfi_offset %rbp, -16
	movq	%rsp, %rbp
Lcfi5:
	.cfi_def_cfa_register %rbp
	subq	$48, %rsp
	movl	$0, -4(%rbp)
	movl	%edi, -8(%rbp)
	movq	%rsi, -16(%rbp)
Ltmp2:
	.loc	1 17 9 prologue_end     ## main.cpp:17:9
	movl	$1, -20(%rbp)
	.loc	1 18 9                  ## main.cpp:18:9
	movl	$2, -24(%rbp)
	.loc	1 19 24                 ## main.cpp:19:24
	movl	-20(%rbp), %edi
	.loc	1 19 27 is_stmt 0       ## main.cpp:19:27
	movl	-24(%rbp), %esi
	.loc	1 19 13                 ## main.cpp:19:13
	callq	__Z10inline_addii
	.loc	1 19 9                  ## main.cpp:19:9
	movl	%eax, -28(%rbp)
Ltmp3:
	.loc	1 22 9 is_stmt 1        ## main.cpp:22:9
	movl	$1, -32(%rbp)
	.loc	1 23 9                  ## main.cpp:23:9
	movl	$2, -36(%rbp)
	.loc	1 24 27                 ## main.cpp:24:27
	movl	-32(%rbp), %edi
	.loc	1 24 30 is_stmt 0       ## main.cpp:24:30
	movl	-36(%rbp), %esi
	.loc	1 24 13                 ## main.cpp:24:13
	callq	__Z13no_inline_addii
	xorl	%esi, %esi
	.loc	1 24 9                  ## main.cpp:24:9
	movl	%eax, -40(%rbp)
Ltmp4:
	.loc	1 26 3 is_stmt 1        ## main.cpp:26:3
	movl	%esi, %eax
	addq	$48, %rsp
	popq	%rbp
	retq
Ltmp5:
Lfunc_end1:
	.cfi_endproc
                                        ## -- End function
	.globl	__Z10inline_addii       ## -- Begin function _Z10inline_addii
	.weak_definition	__Z10inline_addii
	.p2align	4, 0x90
__Z10inline_addii:                      ## @_Z10inline_addii
Lfunc_begin2:
	.loc	1 4 0                   ## main.cpp:4:0
	.cfi_startproc
## BB#0:
	pushq	%rbp
Lcfi6:
	.cfi_def_cfa_offset 16
Lcfi7:
	.cfi_offset %rbp, -16
	movq	%rsp, %rbp
Lcfi8:
	.cfi_def_cfa_register %rbp
	movq	__ZZ10inline_addiiE3cnt@GOTPCREL(%rip), %rax
	movl	%edi, -4(%rbp)
	movl	%esi, -8(%rbp)
Ltmp6:
	.loc	1 6 6 prologue_end      ## main.cpp:6:6
	movl	(%rax), %esi
	addl	$1, %esi
	movl	%esi, (%rax)
	.loc	1 7 10                  ## main.cpp:7:10
	movl	(%rax), %esi
	.loc	1 7 14 is_stmt 0        ## main.cpp:7:14
	addl	-4(%rbp), %esi
	.loc	1 7 18                  ## main.cpp:7:18
	addl	-8(%rbp), %esi
	.loc	1 7 3                   ## main.cpp:7:3
	movl	%esi, %eax
	popq	%rbp
	retq
Ltmp7:
Lfunc_end2:
	.cfi_endproc
                                        ## -- End function
.zerofill __DATA,__bss,__ZZ13no_inline_addiiE3cnt,4,2 ## @_ZZ13no_inline_addiiE3cnt
	.section	__DATA,__data
	.globl	__ZZ10inline_addiiE3cnt ## @_ZZ10inline_addiiE3cnt
	.weak_definition	__ZZ10inline_addiiE3cnt
	.p2align	2
__ZZ10inline_addiiE3cnt:
	.long	0                       ## 0x0
